; Function Attrs: nounwind uwtable
define ptr @l_Std_Sat_AIG_RelabelNat_State_ofAIGAux___rarg___boxed(ptr noundef %0, ptr noundef %1, ptr noundef %2) #0 {
  %4 = getelementptr inbounds nuw i8, ptr %2, i64 8
  %5 = load ptr, ptr %4, align 8, !tbaa !4
  %6 = load ptr, ptr @l_Std_Sat_AIG_RelabelNat_State_empty___rarg___closed__3, align 8, !tbaa !4
  tail call void @lean_inc_heartbeat() #4
  %7 = tail call noalias ptr @mi_malloc_small(i64 noundef 24) #4
  %8 = icmp eq ptr %7, null
  br i1 %8, label %9, label %l_Std_Sat_AIG_RelabelNat_State_ofAIGAux___rarg.exit

9:                                                ; preds = %3
  tail call void @lean_internal_panic_out_of_memory() #5
  unreachable

l_Std_Sat_AIG_RelabelNat_State_ofAIGAux___rarg.exit: ; preds = %3
  %10 = getelementptr inbounds nuw i8, ptr %7, i64 4
  store i32 1, ptr %7, align 4, !tbaa !8
  store i32 131096, ptr %10, align 4
  %11 = getelementptr inbounds nuw i8, ptr %7, i64 8
  store ptr inttoptr (i64 1 to ptr), ptr %11, align 8, !tbaa !4
  %12 = getelementptr inbounds nuw i8, ptr %7, i64 16
  store ptr %6, ptr %12, align 8, !tbaa !4
  %13 = tail call ptr @l_Std_Sat_AIG_RelabelNat_State_ofAIGAux_go___rarg(ptr noundef %0, ptr noundef %1, ptr noundef %5, ptr noundef nonnull inttoptr (i64 1 to ptr), ptr noundef nonnull %7)
  %14 = ptrtoint ptr %2 to i64
  %15 = and i64 %14, 1
  %.not = icmp eq i64 %15, 0
  br i1 %.not, label %16, label %lean_dec.exit

16:                                               ; preds = %l_Std_Sat_AIG_RelabelNat_State_ofAIGAux___rarg.exit
  %17 = load i32, ptr %2, align 4, !tbaa !8
  %18 = icmp sgt i32 %17, 1
  br i1 %18, label %19, label %21, !prof !15

19:                                               ; preds = %16
  %20 = add nsw i32 %17, -1
  store i32 %20, ptr %2, align 4, !tbaa !8
  br label %lean_dec.exit

21:                                               ; preds = %16
  %.not.i = icmp eq i32 %17, 0
  br i1 %.not.i, label %lean_dec.exit, label %22

22:                                               ; preds = %21
  tail call void @lean_dec_ref_cold(ptr noundef nonnull %2) #4
  br label %lean_dec.exit

lean_dec.exit:                                    ; preds = %22, %21, %19, %l_Std_Sat_AIG_RelabelNat_State_ofAIGAux___rarg.exit
  ret ptr %13
}